; Function Attrs: nofree norecurse nosync nounwind memory(read, argmem: readwrite, inaccessiblemem: none) uwtable
define internal void @ff_avg_dirac_pixels16_bilinear_c(ptr noundef captures(none) %0, ptr noundef readonly captures(none) %1, i32 noundef %2, i32 noundef %3) #3 {
  %5 = getelementptr inbounds nuw i8, ptr %1, i64 32
  %6 = load ptr, ptr %5, align 8, !tbaa !51
  %.not40 = icmp eq i32 %3, 0
  br i1 %.not40, label %._crit_edge, label %.preheader.lr.ph

.preheader.lr.ph:                                 ; preds = %4
  %7 = getelementptr inbounds nuw i8, ptr %1, i64 24
  %8 = load ptr, ptr %7, align 8, !tbaa !51
  %9 = getelementptr inbounds nuw i8, ptr %1, i64 16
  %10 = load ptr, ptr %9, align 8, !tbaa !51
  %11 = getelementptr inbounds nuw i8, ptr %1, i64 8
  %12 = load ptr, ptr %11, align 8, !tbaa !51
  %13 = load ptr, ptr %1, align 8, !tbaa !51
  %14 = getelementptr inbounds nuw i8, ptr %6, i64 1
  %15 = getelementptr inbounds nuw i8, ptr %6, i64 2
  %16 = getelementptr inbounds nuw i8, ptr %6, i64 3
  %17 = sext i32 %2 to i64
  br label %.preheader

.preheader:                                       ; preds = %.preheader.lr.ph, %55
  %.in = phi i32 [ %3, %.preheader.lr.ph ], [ %56, %55 ]
  %.045 = phi ptr [ %0, %.preheader.lr.ph ], [ %57, %55 ]
  %.03344 = phi ptr [ %8, %.preheader.lr.ph ], [ %61, %55 ]
  %.03443 = phi ptr [ %10, %.preheader.lr.ph ], [ %60, %55 ]
  %.03542 = phi ptr [ %12, %.preheader.lr.ph ], [ %59, %55 ]
  %.03641 = phi ptr [ %13, %.preheader.lr.ph ], [ %58, %55 ]
  br label %18

18:                                               ; preds = %.preheader, %18
  %indvars.iv = phi i64 [ 0, %.preheader ], [ %indvars.iv.next, %18 ]
  %19 = getelementptr inbounds nuw i8, ptr %.045, i64 %indvars.iv
  %20 = load i8, ptr %19, align 1, !tbaa !11
  %21 = zext i8 %20 to i32
  %22 = getelementptr inbounds nuw i8, ptr %.03641, i64 %indvars.iv
  %23 = load i8, ptr %22, align 1, !tbaa !11
  %24 = zext i8 %23 to i32
  %25 = load i8, ptr %6, align 1, !tbaa !11
  %26 = zext i8 %25 to i32
  %27 = mul nuw nsw i32 %26, %24
  %28 = getelementptr inbounds nuw i8, ptr %.03542, i64 %indvars.iv
  %29 = load i8, ptr %28, align 1, !tbaa !11
  %30 = zext i8 %29 to i32
  %31 = load i8, ptr %14, align 1, !tbaa !11
  %32 = zext i8 %31 to i32
  %33 = mul nuw nsw i32 %32, %30
  %34 = getelementptr inbounds nuw i8, ptr %.03443, i64 %indvars.iv
  %35 = load i8, ptr %34, align 1, !tbaa !11
  %36 = zext i8 %35 to i32
  %37 = load i8, ptr %15, align 1, !tbaa !11
  %38 = zext i8 %37 to i32
  %39 = mul nuw nsw i32 %38, %36
  %40 = getelementptr inbounds nuw i8, ptr %.03344, i64 %indvars.iv
  %41 = load i8, ptr %40, align 1, !tbaa !11
  %42 = zext i8 %41 to i32
  %43 = load i8, ptr %16, align 1, !tbaa !11
  %44 = zext i8 %43 to i32
  %45 = mul nuw nsw i32 %44, %42
  %46 = add nuw nsw i32 %27, 8
  %47 = add nuw nsw i32 %46, %33
  %48 = add nuw nsw i32 %47, %39
  %49 = add nuw nsw i32 %48, %45
  %50 = lshr i32 %49, 4
  %51 = add nuw nsw i32 %21, 1
  %52 = add nuw nsw i32 %51, %50
  %53 = lshr i32 %52, 1
  %54 = trunc i32 %53 to i8
  store i8 %54, ptr %19, align 1, !tbaa !11
  %indvars.iv.next = add nuw nsw i64 %indvars.iv, 1
  %exitcond.not = icmp eq i64 %indvars.iv.next, 16
  br i1 %exitcond.not, label %55, label %18, !llvm.loop !61

55:                                               ; preds = %18
  %56 = add nsw i32 %.in, -1
  %57 = getelementptr inbounds i8, ptr %.045, i64 %17
  %58 = getelementptr inbounds i8, ptr %.03641, i64 %17
  %59 = getelementptr inbounds i8, ptr %.03542, i64 %17
  %60 = getelementptr inbounds i8, ptr %.03443, i64 %17
  %61 = getelementptr inbounds i8, ptr %.03344, i64 %17
  %.not = icmp eq i32 %56, 0
  br i1 %.not, label %._crit_edge, label %.preheader, !llvm.loop !62

._crit_edge:                                      ; preds = %55, %4
  ret void
}